target datalayout = "e-m:e-p270:32:32-p271:32:32-p272:64:64-i64:64-i128:128-f80:128-n8:16:32:64-S128"
target triple = "x86_64-pc-linux-gnu"

@.str.1 = private unnamed_addr constant [30 x i8] c"Assertion %s failed at %s:%d\0A\00", align 1
@.str.2 = private unnamed_addr constant [15 x i8] c"opaque == data\00", align 1
@.str.3 = private unnamed_addr constant [24 x i8] c"libavcodec/apv_parser.c\00", align 1

; Function Attrs: nounwind uwtable
define internal void @dummy_free(ptr noundef %0, ptr noundef %1) #1 {
  %3 = alloca ptr, align 8
  %4 = alloca ptr, align 8
  store ptr %0, ptr %3, align 8, !tbaa !95
  store ptr %1, ptr %4, align 8, !tbaa !35
  br label %5

5:                                                ; preds = %2
  %6 = load ptr, ptr %3, align 8, !tbaa !95
  %7 = load ptr, ptr %4, align 8, !tbaa !35
  %8 = icmp eq ptr %6, %7
  br i1 %8, label %10, label %9

9:                                                ; preds = %5
  call void (ptr, i32, ptr, ...) @av_log(ptr noundef null, i32 noundef 0, ptr noundef @.str.1, ptr noundef @.str.2, ptr noundef @.str.3, i32 noundef 42)
  call void @abort() #6
  unreachable

10:                                               ; preds = %5
  br label %11

11:                                               ; preds = %10
  ret void
}