; Function Attrs: nounwind uwtable
define internal void @dummy_free(ptr noundef readnone captures(address) %0, ptr noundef readnone captures(address) %1) #1 {
  %3 = icmp eq ptr %0, %1
  br i1 %3, label %5, label %4

4:                                                ; preds = %2
  tail call void (ptr, i32, ptr, ...) @av_log(ptr noundef null, i32 noundef 0, ptr noundef nonnull @.str.1, ptr noundef nonnull @.str.2, ptr noundef nonnull @.str.3, i32 noundef 42) #5
  tail call void @abort() #6
  unreachable

5:                                                ; preds = %2
  ret void
}